target datalayout = "e-m:e-p270:32:32-p271:32:32-p272:64:64-i64:64-i128:128-f80:128-n8:16:32:64-S128"
target triple = "x86_64-pc-linux-gnu"

%"class.YAML::Emitter" = type { %"class.std::unique_ptr", %"class.YAML::ostream_wrapper" }
%"class.std::unique_ptr" = type { %"struct.std::__uniq_ptr_data" }
%"struct.std::__uniq_ptr_data" = type { %"class.std::__uniq_ptr_impl" }
%"class.std::__uniq_ptr_impl" = type { %"class.std::tuple" }
%"class.std::tuple" = type { %"struct.std::_Tuple_impl" }
%"struct.std::_Tuple_impl" = type { %"struct.std::_Head_base.1" }
%"struct.std::_Head_base.1" = type { ptr }
%"class.YAML::ostream_wrapper" = type <{ %"class.std::vector", ptr, i64, i64, i64, i8, [7 x i8] }>
%"class.std::vector" = type { %"struct.std::_Vector_base" }
%"struct.std::_Vector_base" = type { %"struct.std::_Vector_base<char, std::allocator<char>>::_Vector_impl" }
%"struct.std::_Vector_base<char, std::allocator<char>>::_Vector_impl" = type { %"struct.std::_Vector_base<char, std::allocator<char>>::_Vector_impl_data" }
%"struct.std::_Vector_base<char, std::allocator<char>>::_Vector_impl_data" = type { ptr, ptr, ptr }
%"class.YAML::EmitterState" = type { i8, %"class.std::__cxx11::basic_string", %"class.YAML::Setting", %"class.YAML::Setting", %"class.YAML::Setting", %"class.YAML::Setting", %"class.YAML::Setting", %"class.YAML::Setting", %"class.YAML::Setting", %"class.YAML::Setting.2", %"class.YAML::Setting.2", %"class.YAML::Setting.2", %"class.YAML::Setting", %"class.YAML::Setting", %"class.YAML::Setting", %"class.YAML::Setting.2", %"class.YAML::Setting.2", %"class.YAML::SettingChanges", %"class.YAML::SettingChanges", %"class.std::vector.8", i64, i8, i8, i8, i8, i64 }
%"class.std::__cxx11::basic_string" = type { %"struct.std::__cxx11::basic_string<char>::_Alloc_hider", i64, %union.anon }
%"struct.std::__cxx11::basic_string<char>::_Alloc_hider" = type { ptr }
%union.anon = type { i64, [8 x i8] }
%"class.YAML::Setting" = type { i32 }
%"class.YAML::Setting.2" = type { i64 }
%"class.YAML::SettingChanges" = type { %"class.std::vector.3" }
%"class.std::vector.3" = type { %"struct.std::_Vector_base.4" }
%"struct.std::_Vector_base.4" = type { %"struct.std::_Vector_base<std::unique_ptr<YAML::SettingChangeBase>, std::allocator<std::unique_ptr<YAML::SettingChangeBase>>>::_Vector_impl" }
%"struct.std::_Vector_base<std::unique_ptr<YAML::SettingChangeBase>, std::allocator<std::unique_ptr<YAML::SettingChangeBase>>>::_Vector_impl" = type { %"struct.std::_Vector_base<std::unique_ptr<YAML::SettingChangeBase>, std::allocator<std::unique_ptr<YAML::SettingChangeBase>>>::_Vector_impl_data" }
%"struct.std::_Vector_base<std::unique_ptr<YAML::SettingChangeBase>, std::allocator<std::unique_ptr<YAML::SettingChangeBase>>>::_Vector_impl_data" = type { ptr, ptr, ptr }
%"class.std::vector.8" = type { %"struct.std::_Vector_base.9" }
%"struct.std::_Vector_base.9" = type { %"struct.std::_Vector_base<std::unique_ptr<YAML::EmitterState::Group>, std::allocator<std::unique_ptr<YAML::EmitterState::Group>>>::_Vector_impl" }
%"struct.std::_Vector_base<std::unique_ptr<YAML::EmitterState::Group>, std::allocator<std::unique_ptr<YAML::EmitterState::Group>>>::_Vector_impl" = type { %"struct.std::_Vector_base<std::unique_ptr<YAML::EmitterState::Group>, std::allocator<std::unique_ptr<YAML::EmitterState::Group>>>::_Vector_impl_data" }
%"struct.std::_Vector_base<std::unique_ptr<YAML::EmitterState::Group>, std::allocator<std::unique_ptr<YAML::EmitterState::Group>>>::_Vector_impl_data" = type { ptr, ptr, ptr }

; Function Attrs: mustprogress nounwind uwtable
define linkonce_odr noundef nonnull align 8 dereferenceable(8) ptr @_ZNSt10_Head_baseILm0EPN4YAML12EmitterStateELb0EE7_M_headERKS3_(ptr noundef nonnull align 8 dereferenceable(8) %0) #4 comdat align 2 {
  %2 = alloca ptr, align 8
  store ptr %0, ptr %2, align 8, !tbaa !167
  %3 = load ptr, ptr %2, align 8, !tbaa !167
  %4 = getelementptr inbounds nuw %"struct.std::_Head_base.1", ptr %3, i32 0, i32 0
  ret ptr %4
}

; Function Attrs: mustprogress nounwind uwtable
define linkonce_odr noundef nonnull align 8 dereferenceable(8) ptr @_ZNSt11_Tuple_implILm0EJPN4YAML12EmitterStateESt14default_deleteIS1_EEE7_M_headERKS5_(ptr noundef nonnull align 8 dereferenceable(8) %0) #4 comdat align 2 {
  %2 = alloca ptr, align 8
  store ptr %0, ptr %2, align 8, !tbaa !163
  %3 = load ptr, ptr %2, align 8, !tbaa !163
  %4 = call noundef nonnull align 8 dereferenceable(8) ptr @_ZNSt10_Head_baseILm0EPN4YAML12EmitterStateELb0EE7_M_headERKS3_(ptr noundef nonnull align 8 dereferenceable(8) %3) #14
  ret ptr %4
}

; Function Attrs: mustprogress nounwind uwtable
define linkonce_odr noundef nonnull align 8 dereferenceable(8) ptr @_ZSt12__get_helperILm0EPN4YAML12EmitterStateEJSt14default_deleteIS1_EEERKT0_RKSt11_Tuple_implIXT_EJS5_DpT1_EE(ptr noundef nonnull align 8 dereferenceable(8) %0) #4 comdat {
  %2 = alloca ptr, align 8
  store ptr %0, ptr %2, align 8, !tbaa !163
  %3 = load ptr, ptr %2, align 8, !tbaa !163
  %4 = call noundef nonnull align 8 dereferenceable(8) ptr @_ZNSt11_Tuple_implILm0EJPN4YAML12EmitterStateESt14default_deleteIS1_EEE7_M_headERKS5_(ptr noundef nonnull align 8 dereferenceable(8) %3) #14
  ret ptr %4
}

; Function Attrs: mustprogress nounwind uwtable
define linkonce_odr noundef nonnull align 8 dereferenceable(8) ptr @_ZSt3getILm0EJPN4YAML12EmitterStateESt14default_deleteIS1_EEERKNSt13tuple_elementIXT_ESt5tupleIJDpT0_EEE4typeERKS9_(ptr noundef nonnull align 8 dereferenceable(8) %0) #4 comdat {
  %2 = alloca ptr, align 8
  store ptr %0, ptr %2, align 8, !tbaa !161
  %3 = load ptr, ptr %2, align 8, !tbaa !161
  %4 = call noundef nonnull align 8 dereferenceable(8) ptr @_ZSt12__get_helperILm0EPN4YAML12EmitterStateEJSt14default_deleteIS1_EEERKT0_RKSt11_Tuple_implIXT_EJS5_DpT1_EE(ptr noundef nonnull align 8 dereferenceable(8) %3) #14
  ret ptr %4
}

; Function Attrs: mustprogress nounwind uwtable
define linkonce_odr noundef ptr @_ZNKSt15__uniq_ptr_implIN4YAML12EmitterStateESt14default_deleteIS1_EE6_M_ptrEv(ptr noundef nonnull align 8 dereferenceable(8) %0) #4 comdat align 2 {
  %2 = alloca ptr, align 8
  store ptr %0, ptr %2, align 8, !tbaa !159
  %3 = load ptr, ptr %2, align 8
  %4 = getelementptr inbounds nuw %"class.std::__uniq_ptr_impl", ptr %3, i32 0, i32 0
  %5 = call noundef nonnull align 8 dereferenceable(8) ptr @_ZSt3getILm0EJPN4YAML12EmitterStateESt14default_deleteIS1_EEERKNSt13tuple_elementIXT_ESt5tupleIJDpT0_EEE4typeERKS9_(ptr noundef nonnull align 8 dereferenceable(8) %4) #14
  %6 = load ptr, ptr %5, align 8, !tbaa !10
  ret ptr %6
}

; Function Attrs: mustprogress nounwind uwtable
define linkonce_odr noundef i64 @_ZNK4YAML7SettingImE3getEv(ptr noundef nonnull align 8 dereferenceable(8) %0) #4 comdat align 2 {
  %2 = alloca ptr, align 8
  store ptr %0, ptr %2, align 8, !tbaa !145
  %3 = load ptr, ptr %2, align 8
  %4 = getelementptr inbounds nuw %"class.YAML::Setting.2", ptr %3, i32 0, i32 0
  %5 = load i64, ptr %4, align 8, !tbaa !147
  ret i64 %5
}

; Function Attrs: mustprogress nounwind uwtable
define linkonce_odr noundef i32 @_ZNK4YAML7SettingINS_13EMITTER_MANIPEE3getEv(ptr noundef nonnull align 4 dereferenceable(4) %0) #4 comdat align 2 {
  %2 = alloca ptr, align 8
  store ptr %0, ptr %2, align 8, !tbaa !132
  %3 = load ptr, ptr %2, align 8
  %4 = getelementptr inbounds nuw %"class.YAML::Setting", ptr %3, i32 0, i32 0
  %5 = load i32, ptr %4, align 4, !tbaa !134
  ret i32 %5
}

; Function Attrs: mustprogress nounwind uwtable
define linkonce_odr noundef ptr @_ZNKSt10unique_ptrIN4YAML12EmitterStateESt14default_deleteIS1_EE3getEv(ptr noundef nonnull align 8 dereferenceable(8) %0) #4 comdat align 2 {
  %2 = alloca ptr, align 8
  store ptr %0, ptr %2, align 8, !tbaa !8
  %3 = load ptr, ptr %2, align 8
  %4 = getelementptr inbounds nuw %"class.std::unique_ptr", ptr %3, i32 0, i32 0
  %5 = call noundef ptr @_ZNKSt15__uniq_ptr_implIN4YAML12EmitterStateESt14default_deleteIS1_EE6_M_ptrEv(ptr noundef nonnull align 8 dereferenceable(8) %4) #14
  ret ptr %5
}

; Function Attrs: mustprogress nounwind uwtable
define linkonce_odr noundef zeroext i1 @_ZNK4YAML12EmitterState4goodEv(ptr noundef nonnull align 8 dereferenceable(224) %0) #4 comdat align 2 {
  %2 = alloca ptr, align 8
  store ptr %0, ptr %2, align 8, !tbaa !10
  %3 = load ptr, ptr %2, align 8
  %4 = getelementptr inbounds nuw %"class.YAML::EmitterState", ptr %3, i32 0, i32 0
  %5 = load i8, ptr %4, align 8, !tbaa !30, !range !48, !noundef !49
  %6 = trunc i8 %5 to i1
  ret i1 %6
}

; Function Attrs: mustprogress uwtable
define void @_ZN4YAML7Emitter13StartedScalarEv(ptr noundef nonnull align 8 dereferenceable(72) %0) #0 align 2 {
  %2 = alloca ptr, align 8
  store ptr %0, ptr %2, align 8, !tbaa !3
  %3 = load ptr, ptr %2, align 8
  %4 = getelementptr inbounds nuw %"class.YAML::Emitter", ptr %3, i32 0, i32 0
  %5 = call noundef ptr @_ZNKSt10unique_ptrIN4YAML12EmitterStateESt14default_deleteIS1_EEptEv(ptr noundef nonnull align 8 dereferenceable(8) %4) #14
  call void @_ZN4YAML12EmitterState13StartedScalarEv(ptr noundef nonnull align 8 dereferenceable(224) %5)
  ret void
}

; Function Attrs: mustprogress uwtable
define linkonce_odr noundef i64 @_ZNK4YAML12EmitterState9GetIndentEv(ptr noundef nonnull align 8 dereferenceable(224) %0) #0 comdat align 2 {
  %2 = alloca ptr, align 8
  store ptr %0, ptr %2, align 8, !tbaa !10
  %3 = load ptr, ptr %2, align 8
  %4 = getelementptr inbounds nuw %"class.YAML::EmitterState", ptr %3, i32 0, i32 9
  %5 = call noundef i64 @_ZNK4YAML7SettingImE3getEv(ptr noundef nonnull align 8 dereferenceable(8) %4)
  ret i64 %5
}

; Function Attrs: mustprogress nounwind uwtable
define linkonce_odr noundef i64 @_ZNK4YAML12EmitterState9CurIndentEv(ptr noundef nonnull align 8 dereferenceable(224) %0) #4 comdat align 2 {
  %2 = alloca ptr, align 8
  store ptr %0, ptr %2, align 8, !tbaa !10
  %3 = load ptr, ptr %2, align 8
  %4 = getelementptr inbounds nuw %"class.YAML::EmitterState", ptr %3, i32 0, i32 20
  %5 = load i64, ptr %4, align 8, !tbaa !85
  ret i64 %5
}

; Function Attrs: mustprogress nounwind uwtable
define linkonce_odr noundef i32 @_ZNK4YAML12EmitterState15GetStringFormatEv(ptr noundef nonnull align 8 dereferenceable(224) %0) #4 comdat align 2 {
  %2 = alloca ptr, align 8
  store ptr %0, ptr %2, align 8, !tbaa !10
  %3 = load ptr, ptr %2, align 8
  %4 = getelementptr inbounds nuw %"class.YAML::EmitterState", ptr %3, i32 0, i32 3
  %5 = call noundef i32 @_ZNK4YAML7SettingINS_13EMITTER_MANIPEE3getEv(ptr noundef nonnull align 4 dereferenceable(4) %4)
  ret i32 %5
}

; Function Attrs: mustprogress nounwind uwtable
define noundef i32 @_ZN4YAML22GetStringEscapingStyleENS_13EMITTER_MANIPE(i32 noundef %0) #4 {
  %2 = alloca i32, align 4
  %3 = alloca i32, align 4
  store i32 %0, ptr %3, align 4, !tbaa !50
  %4 = load i32, ptr %3, align 4, !tbaa !50
  switch i32 %4, label %7 [
    i32 4, label %5
    i32 5, label %6
  ]

5:                                                ; preds = %1
  store i32 1, ptr %2, align 4
  br label %8

6:                                                ; preds = %1
  store i32 2, ptr %2, align 4
  br label %8

7:                                                ; preds = %1
  store i32 0, ptr %2, align 4
  br label %8

8:                                                ; preds = %7, %6, %5
  %9 = load i32, ptr %2, align 4
  ret i32 %9
}

; Function Attrs: mustprogress nounwind uwtable
define linkonce_odr noundef i32 @_ZNK4YAML12EmitterState16GetOutputCharsetEv(ptr noundef nonnull align 8 dereferenceable(224) %0) #4 comdat align 2 {
  %2 = alloca ptr, align 8
  store ptr %0, ptr %2, align 8, !tbaa !10
  %3 = load ptr, ptr %2, align 8
  %4 = getelementptr inbounds nuw %"class.YAML::EmitterState", ptr %3, i32 0, i32 2
  %5 = call noundef i32 @_ZNK4YAML7SettingINS_13EMITTER_MANIPEE3getEv(ptr noundef nonnull align 4 dereferenceable(4) %4)
  ret i32 %5
}

; Function Attrs: mustprogress nounwind uwtable
define linkonce_odr noundef ptr @_ZNKSt10unique_ptrIN4YAML12EmitterStateESt14default_deleteIS1_EEptEv(ptr noundef nonnull align 8 dereferenceable(8) %0) #4 comdat align 2 {
  %2 = alloca ptr, align 8
  store ptr %0, ptr %2, align 8, !tbaa !8
  %3 = load ptr, ptr %2, align 8
  %4 = call noundef ptr @_ZNKSt10unique_ptrIN4YAML12EmitterStateESt14default_deleteIS1_EE3getEv(ptr noundef nonnull align 8 dereferenceable(8) %3) #14
  ret ptr %4
}

; Function Attrs: mustprogress uwtable
define noundef zeroext i1 @_ZNK4YAML7Emitter4goodEv(ptr noundef nonnull align 8 dereferenceable(72) %0) #0 align 2 {
  %2 = alloca ptr, align 8
  store ptr %0, ptr %2, align 8, !tbaa !3
  %3 = load ptr, ptr %2, align 8
  %4 = getelementptr inbounds nuw %"class.YAML::Emitter", ptr %3, i32 0, i32 0
  %5 = call noundef ptr @_ZNKSt10unique_ptrIN4YAML12EmitterStateESt14default_deleteIS1_EEptEv(ptr noundef nonnull align 8 dereferenceable(8) %4) #14
  %6 = call noundef zeroext i1 @_ZNK4YAML12EmitterState4goodEv(ptr noundef nonnull align 8 dereferenceable(224) %5)
  ret i1 %6
}

; Function Attrs: mustprogress uwtable
define noundef nonnull align 8 dereferenceable(72) ptr @_ZN4YAML7Emitter5WriteEPKcm(ptr noundef nonnull align 8 dereferenceable(72) %0, ptr noundef %1, i64 noundef %2) #0 align 2 {
  %4 = alloca ptr, align 8
  %5 = alloca ptr, align 8
  %6 = alloca ptr, align 8
  %7 = alloca i64, align 8
  %8 = alloca i32, align 4
  %9 = alloca i32, align 4
  store ptr %0, ptr %5, align 8, !tbaa !3
  store ptr %1, ptr %6, align 8, !tbaa !69
  store i64 %2, ptr %7, align 8, !tbaa !52
  %10 = load ptr, ptr %5, align 8
  %11 = call noundef zeroext i1 @_ZNK4YAML7Emitter4goodEv(ptr noundef nonnull align 8 dereferenceable(72) %10)
  br i1 %11, label %13, label %12

12:                                               ; preds = %3
  store ptr %10, ptr %4, align 8
  br label %68

13:                                               ; preds = %3
  call void @llvm.lifetime.start.p0(i64 4, ptr %8) #14
  %14 = getelementptr inbounds nuw %"class.YAML::Emitter", ptr %10, i32 0, i32 0
  %15 = call noundef ptr @_ZNKSt10unique_ptrIN4YAML12EmitterStateESt14default_deleteIS1_EEptEv(ptr noundef nonnull align 8 dereferenceable(8) %14) #14
  %16 = call noundef i32 @_ZNK4YAML12EmitterState16GetOutputCharsetEv(ptr noundef nonnull align 8 dereferenceable(224) %15)
  %17 = call noundef i32 @_ZN4YAML22GetStringEscapingStyleENS_13EMITTER_MANIPE(i32 noundef %16)
  store i32 %17, ptr %8, align 4, !tbaa !94
  call void @llvm.lifetime.start.p0(i64 4, ptr %9) #14
  %18 = load ptr, ptr %6, align 8, !tbaa !69
  %19 = load i64, ptr %7, align 8, !tbaa !52
  %20 = getelementptr inbounds nuw %"class.YAML::Emitter", ptr %10, i32 0, i32 0
  %21 = call noundef ptr @_ZNKSt10unique_ptrIN4YAML12EmitterStateESt14default_deleteIS1_EEptEv(ptr noundef nonnull align 8 dereferenceable(8) %20) #14
  %22 = call noundef i32 @_ZNK4YAML12EmitterState15GetStringFormatEv(ptr noundef nonnull align 8 dereferenceable(224) %21)
  %23 = getelementptr inbounds nuw %"class.YAML::Emitter", ptr %10, i32 0, i32 0
  %24 = call noundef ptr @_ZNKSt10unique_ptrIN4YAML12EmitterStateESt14default_deleteIS1_EEptEv(ptr noundef nonnull align 8 dereferenceable(8) %23) #14
  %25 = call noundef i32 @_ZNK4YAML12EmitterState16CurGroupFlowTypeEv(ptr noundef nonnull align 8 dereferenceable(224) %24)
  %26 = load i32, ptr %8, align 4, !tbaa !94
  %27 = icmp eq i32 %26, 1
  %28 = call noundef i32 @_ZN4YAML5Utils19ComputeStringFormatEPKcmNS_13EMITTER_MANIPENS_8FlowType5valueEb(ptr noundef %18, i64 noundef %19, i32 noundef %22, i32 noundef %25, i1 noundef zeroext %27)
  store i32 %28, ptr %9, align 4, !tbaa !96
  %29 = load i32, ptr %9, align 4, !tbaa !96
  %30 = icmp eq i32 %29, 3
  br i1 %30, label %34, label %31

31:                                               ; preds = %13
  %32 = load i64, ptr %7, align 8, !tbaa !52
  %33 = icmp ugt i64 %32, 1024
  br i1 %33, label %34, label %38

34:                                               ; preds = %31, %13
  %35 = getelementptr inbounds nuw %"class.YAML::Emitter", ptr %10, i32 0, i32 0
  %36 = call noundef ptr @_ZNKSt10unique_ptrIN4YAML12EmitterStateESt14default_deleteIS1_EEptEv(ptr noundef nonnull align 8 dereferenceable(8) %35) #14
  %37 = call noundef zeroext i1 @_ZN4YAML12EmitterState15SetMapKeyFormatENS_13EMITTER_MANIPENS_8FmtScope5valueE(ptr noundef nonnull align 8 dereferenceable(224) %36, i32 noundef 34, i32 noundef 0)
  br label %38

38:                                               ; preds = %34, %31
  call void @_ZN4YAML7Emitter11PrepareNodeENS_15EmitterNodeType5valueE(ptr noundef nonnull align 8 dereferenceable(72) %10, i32 noundef 2)
  %39 = load i32, ptr %9, align 4, !tbaa !96
  switch i32 %39, label %67 [
    i32 0, label %40
    i32 1, label %44
    i32 2, label %49
    i32 3, label %55
  ]

40:                                               ; preds = %38
  %41 = getelementptr inbounds nuw %"class.YAML::Emitter", ptr %10, i32 0, i32 1
  %42 = load ptr, ptr %6, align 8, !tbaa !69
  %43 = load i64, ptr %7, align 8, !tbaa !52
  call void @_ZN4YAML15ostream_wrapper5writeEPKcm(ptr noundef nonnull align 8 dereferenceable(57) %41, ptr noundef %42, i64 noundef %43)
  br label %67

44:                                               ; preds = %38
  %45 = getelementptr inbounds nuw %"class.YAML::Emitter", ptr %10, i32 0, i32 1
  %46 = load ptr, ptr %6, align 8, !tbaa !69
  %47 = load i64, ptr %7, align 8, !tbaa !52
  %48 = call noundef zeroext i1 @_ZN4YAML5Utils23WriteSingleQuotedStringERNS_15ostream_wrapperEPKcm(ptr noundef nonnull align 8 dereferenceable(57) %45, ptr noundef %46, i64 noundef %47)
  br label %67

49:                                               ; preds = %38
  %50 = getelementptr inbounds nuw %"class.YAML::Emitter", ptr %10, i32 0, i32 1
  %51 = load ptr, ptr %6, align 8, !tbaa !69
  %52 = load i64, ptr %7, align 8, !tbaa !52
  %53 = load i32, ptr %8, align 4, !tbaa !94
  %54 = call noundef zeroext i1 @_ZN4YAML5Utils23WriteDoubleQuotedStringERNS_15ostream_wrapperEPKcmNS_14StringEscaping5valueE(ptr noundef nonnull align 8 dereferenceable(57) %50, ptr noundef %51, i64 noundef %52, i32 noundef %53)
  br label %67

55:                                               ; preds = %38
  %56 = getelementptr inbounds nuw %"class.YAML::Emitter", ptr %10, i32 0, i32 1
  %57 = load ptr, ptr %6, align 8, !tbaa !69
  %58 = load i64, ptr %7, align 8, !tbaa !52
  %59 = getelementptr inbounds nuw %"class.YAML::Emitter", ptr %10, i32 0, i32 0
  %60 = call noundef ptr @_ZNKSt10unique_ptrIN4YAML12EmitterStateESt14default_deleteIS1_EEptEv(ptr noundef nonnull align 8 dereferenceable(8) %59) #14
  %61 = call noundef i64 @_ZNK4YAML12EmitterState9CurIndentEv(ptr noundef nonnull align 8 dereferenceable(224) %60)
  %62 = getelementptr inbounds nuw %"class.YAML::Emitter", ptr %10, i32 0, i32 0
  %63 = call noundef ptr @_ZNKSt10unique_ptrIN4YAML12EmitterStateESt14default_deleteIS1_EEptEv(ptr noundef nonnull align 8 dereferenceable(8) %62) #14
  %64 = call noundef i64 @_ZNK4YAML12EmitterState9GetIndentEv(ptr noundef nonnull align 8 dereferenceable(224) %63)
  %65 = add i64 %61, %64
  %66 = call noundef zeroext i1 @_ZN4YAML5Utils18WriteLiteralStringERNS_15ostream_wrapperEPKcmm(ptr noundef nonnull align 8 dereferenceable(57) %56, ptr noundef %57, i64 noundef %58, i64 noundef %65)
  br label %67

67:                                               ; preds = %38, %55, %49, %44, %40
  call void @_ZN4YAML7Emitter13StartedScalarEv(ptr noundef nonnull align 8 dereferenceable(72) %10)
  store ptr %10, ptr %4, align 8
  call void @llvm.lifetime.end.p0(i64 4, ptr %9) #14
  call void @llvm.lifetime.end.p0(i64 4, ptr %8) #14
  br label %68

68:                                               ; preds = %67, %12
  %69 = load ptr, ptr %4, align 8
  ret ptr %69
}