; Function Attrs: mustprogress uwtable
define noundef nonnull align 8 dereferenceable(72) ptr @_ZN4YAML7Emitter5WriteEPKcm(ptr noundef nonnull returned align 8 dereferenceable(72) %0, ptr noundef %1, i64 noundef %2) local_unnamed_addr #0 align 2 {
  %4 = load ptr, ptr %0, align 8, !tbaa !3
  %5 = load i8, ptr %4, align 8, !tbaa !21, !range !39, !noundef !40
  %6 = trunc nuw i8 %5 to i1
  br i1 %6, label %7, label %39

7:                                                ; preds = %3
  %8 = getelementptr inbounds nuw i8, ptr %4, i64 40
  %9 = load i32, ptr %8, align 4, !tbaa !65
  %switch.selectcmp.i = icmp eq i32 %9, 5
  %switch.select.i = select i1 %switch.selectcmp.i, i32 2, i32 0
  %switch.selectcmp2.i = icmp eq i32 %9, 4
  %switch.select3.i = select i1 %switch.selectcmp2.i, i32 1, i32 %switch.select.i
  %10 = getelementptr inbounds nuw i8, ptr %4, i64 44
  %11 = load i32, ptr %10, align 4, !tbaa !65
  %12 = tail call noundef i32 @_ZNK4YAML12EmitterState16CurGroupFlowTypeEv(ptr noundef nonnull align 8 dereferenceable(224) %4)
  %13 = tail call noundef i32 @_ZN4YAML5Utils19ComputeStringFormatEPKcmNS_13EMITTER_MANIPENS_8FlowType5valueEb(ptr noundef %1, i64 noundef %2, i32 noundef %11, i32 noundef %12, i1 noundef zeroext %switch.selectcmp2.i)
  %14 = icmp eq i32 %13, 3
  %15 = icmp ugt i64 %2, 1024
  %or.cond = or i1 %15, %14
  br i1 %or.cond, label %16, label %19

16:                                               ; preds = %7
  %17 = load ptr, ptr %0, align 8, !tbaa !3
  %18 = tail call noundef zeroext i1 @_ZN4YAML12EmitterState15SetMapKeyFormatENS_13EMITTER_MANIPENS_8FmtScope5valueE(ptr noundef nonnull align 8 dereferenceable(224) %17, i32 noundef 34, i32 noundef 0)
  br label %19

19:                                               ; preds = %7, %16
  tail call void @_ZN4YAML7Emitter11PrepareNodeENS_15EmitterNodeType5valueE(ptr noundef nonnull align 8 dereferenceable(72) %0, i32 noundef 2)
  switch i32 %13, label %37 [
    i32 0, label %20
    i32 1, label %22
    i32 2, label %25
    i32 3, label %28
  ]

20:                                               ; preds = %19
  %21 = getelementptr inbounds nuw i8, ptr %0, i64 8
  tail call void @_ZN4YAML15ostream_wrapper5writeEPKcm(ptr noundef nonnull align 8 dereferenceable(57) %21, ptr noundef %1, i64 noundef %2)
  br label %37

22:                                               ; preds = %19
  %23 = getelementptr inbounds nuw i8, ptr %0, i64 8
  %24 = tail call noundef zeroext i1 @_ZN4YAML5Utils23WriteSingleQuotedStringERNS_15ostream_wrapperEPKcm(ptr noundef nonnull align 8 dereferenceable(57) %23, ptr noundef %1, i64 noundef %2)
  br label %37

25:                                               ; preds = %19
  %26 = getelementptr inbounds nuw i8, ptr %0, i64 8
  %27 = tail call noundef zeroext i1 @_ZN4YAML5Utils23WriteDoubleQuotedStringERNS_15ostream_wrapperEPKcmNS_14StringEscaping5valueE(ptr noundef nonnull align 8 dereferenceable(57) %26, ptr noundef %1, i64 noundef %2, i32 noundef %switch.select3.i)
  br label %37

28:                                               ; preds = %19
  %29 = getelementptr inbounds nuw i8, ptr %0, i64 8
  %30 = load ptr, ptr %0, align 8, !tbaa !3
  %31 = getelementptr inbounds nuw i8, ptr %30, i64 200
  %32 = load i64, ptr %31, align 8, !tbaa !53
  %33 = getelementptr inbounds nuw i8, ptr %30, i64 72
  %34 = load i64, ptr %33, align 8, !tbaa !79
  %35 = add i64 %34, %32
  %36 = tail call noundef zeroext i1 @_ZN4YAML5Utils18WriteLiteralStringERNS_15ostream_wrapperEPKcmm(ptr noundef nonnull align 8 dereferenceable(57) %29, ptr noundef %1, i64 noundef %2, i64 noundef %35)
  br label %37

37:                                               ; preds = %28, %25, %22, %20, %19
  %38 = load ptr, ptr %0, align 8, !tbaa !3
  tail call void @_ZN4YAML12EmitterState13StartedScalarEv(ptr noundef nonnull align 8 dereferenceable(224) %38)
  br label %39

39:                                               ; preds = %3, %37
  ret ptr %0
}